target datalayout = "e-m:e-p270:32:32-p271:32:32-p272:64:64-i64:64-i128:128-f80:128-n8:16:32:64-S128"
target triple = "x86_64-pc-linux-gnu"

%struct.AVTextFormatSection = type { i32, ptr, i32, [12 x i32], ptr, ptr, ptr, ptr, i32, ptr, ptr, ptr, ptr }

; Function Attrs: inlinehint nounwind uwtable
define internal void @mark_section_show_entries(i32 noundef %0, i32 noundef %1, ptr noundef %2) #5 {
  %4 = alloca i32, align 4
  %5 = alloca i32, align 4
  %6 = alloca ptr, align 8
  %7 = alloca ptr, align 8
  %8 = alloca ptr, align 8
  store i32 %0, ptr %4, align 4, !tbaa !11
  store i32 %1, ptr %5, align 4, !tbaa !11
  store ptr %2, ptr %6, align 8, !tbaa !116
  call void @llvm.lifetime.start.p0(i64 8, ptr %7) #14
  %9 = load i32, ptr %4, align 4, !tbaa !11
  %10 = zext i32 %9 to i64
  %11 = getelementptr inbounds nuw [66 x %struct.AVTextFormatSection], ptr @sections, i64 0, i64 %10
  store ptr %11, ptr %7, align 8, !tbaa !60
  %12 = load i32, ptr %5, align 4, !tbaa !11
  %13 = load ptr, ptr %7, align 8, !tbaa !60
  %14 = getelementptr inbounds nuw %struct.AVTextFormatSection, ptr %13, i32 0, i32 8
  store i32 %12, ptr %14, align 8, !tbaa !61
  %15 = load i32, ptr %5, align 4, !tbaa !11
  %16 = icmp ne i32 %15, 0
  br i1 %16, label %17, label %35

17:                                               ; preds = %3
  call void @llvm.lifetime.start.p0(i64 8, ptr %8) #14
  %18 = load ptr, ptr %7, align 8, !tbaa !60
  %19 = getelementptr inbounds nuw %struct.AVTextFormatSection, ptr %18, i32 0, i32 3
  %20 = getelementptr inbounds [12 x i32], ptr %19, i64 0, i64 0
  store ptr %20, ptr %8, align 8, !tbaa !65
  br label %21

21:                                               ; preds = %31, %17
  %22 = load ptr, ptr %8, align 8, !tbaa !65
  %23 = load i32, ptr %22, align 4, !tbaa !11
  %24 = icmp ne i32 %23, -1
  br i1 %24, label %26, label %25

25:                                               ; preds = %21
  call void @llvm.lifetime.end.p0(i64 8, ptr %8) #14
  br label %34

26:                                               ; preds = %21
  %27 = load ptr, ptr %8, align 8, !tbaa !65
  %28 = load i32, ptr %27, align 4, !tbaa !11
  %29 = load i32, ptr %5, align 4, !tbaa !11
  %30 = load ptr, ptr %6, align 8, !tbaa !116
  call void @mark_section_show_entries(i32 noundef %28, i32 noundef %29, ptr noundef %30)
  br label %31

31:                                               ; preds = %26
  %32 = load ptr, ptr %8, align 8, !tbaa !65
  %33 = getelementptr inbounds nuw i32, ptr %32, i32 1
  store ptr %33, ptr %8, align 8, !tbaa !65
  br label %21, !llvm.loop !125

34:                                               ; preds = %25
  br label %40

35:                                               ; preds = %3
  %36 = load ptr, ptr %7, align 8, !tbaa !60
  %37 = getelementptr inbounds nuw %struct.AVTextFormatSection, ptr %36, i32 0, i32 6
  %38 = load ptr, ptr %6, align 8, !tbaa !116
  %39 = call i32 @av_dict_copy(ptr noundef %37, ptr noundef %38, i32 noundef 0)
  br label %40

40:                                               ; preds = %35, %34
  call void @llvm.lifetime.end.p0(i64 8, ptr %7) #14
  ret void
}