; Function Attrs: inlinehint nounwind uwtable
define internal fastcc void @mark_section_show_entries(i32 noundef %0, i32 noundef range(i32 0, 2) %1, ptr noundef %2) unnamed_addr #9 {
  %4 = zext i32 %0 to i64
  %5 = getelementptr inbounds nuw [66 x %struct.AVTextFormatSection], ptr @sections, i64 0, i64 %4
  %6 = getelementptr inbounds nuw i8, ptr %5, i64 104
  store i32 %1, ptr %6, align 8, !tbaa !67
  %.not = icmp eq i32 %1, 0
  br i1 %.not, label %13, label %7

7:                                                ; preds = %3
  %8 = getelementptr inbounds nuw i8, ptr %5, i64 20
  %9 = load i32, ptr %8, align 4, !tbaa !11
  %.not1314 = icmp eq i32 %9, -1
  br i1 %.not1314, label %.loopexit, label %.lr.ph

.lr.ph:                                           ; preds = %7, %.lr.ph
  %10 = phi i32 [ %12, %.lr.ph ], [ %9, %7 ]
  %.015 = phi ptr [ %11, %.lr.ph ], [ %8, %7 ]
  tail call fastcc void @mark_section_show_entries(i32 noundef %10, i32 noundef 1, ptr noundef %2)
  %11 = getelementptr inbounds nuw i8, ptr %.015, i64 4
  %12 = load i32, ptr %11, align 4, !tbaa !11
  %.not13 = icmp eq i32 %12, -1
  br i1 %.not13, label %.loopexit, label %.lr.ph, !llvm.loop !151

13:                                               ; preds = %3
  %14 = getelementptr inbounds nuw i8, ptr %5, i64 88
  %15 = tail call i32 @av_dict_copy(ptr noundef nonnull %14, ptr noundef %2, i32 noundef 0) #20
  br label %.loopexit

.loopexit:                                        ; preds = %.lr.ph, %7, %13
  ret void
}